; Function Attrs: mustprogress uwtable
define dso_local void @_ZN19btMinkowskiSumShapeC2EPK13btConvexShapeS2_(ptr noundef nonnull align 8 dereferenceable(216) %this, ptr noundef %shapeA, ptr noundef %shapeB) unnamed_addr #0 align 2 personality ptr @__gxx_personality_v0 {
invoke.cont6:
  tail call void @_ZN21btConvexInternalShapeC2Ev(ptr noundef nonnull align 8 dereferenceable(72) %this)
  store ptr getelementptr inbounds ({ [25 x ptr] }, ptr @_ZTV19btMinkowskiSumShape, i64 0, i32 0, i64 2), ptr %this, align 8
  %m_transA = getelementptr inbounds i8, ptr %this, i64 72
  %m_transB = getelementptr inbounds i8, ptr %this, i64 136
  %m_shapeA = getelementptr inbounds i8, ptr %this, i64 200
  store ptr %shapeA, ptr %m_shapeA, align 8
  %m_shapeB = getelementptr inbounds i8, ptr %this, i64 208
  store ptr %shapeB, ptr %m_shapeB, align 8
  %m_shapeType = getelementptr inbounds i8, ptr %this, i64 8
  store i32 16, ptr %m_shapeType, align 8
  store float 1.000000e+00, ptr %m_transA, align 8
  %arrayidx3.i.i.i.i = getelementptr inbounds i8, ptr %this, i64 76
  %arrayidx3.i1.i.i.i = getelementptr inbounds i8, ptr %this, i64 92
  tail call void @llvm.memset.p0.i64(ptr noundef nonnull align 4 dereferenceable(16) %arrayidx3.i.i.i.i, i8 0, i64 16, i1 false)
  store float 1.000000e+00, ptr %arrayidx3.i1.i.i.i, align 4
  %arrayidx5.i2.i.i.i = getelementptr inbounds i8, ptr %this, i64 96
  %arrayidx5.i5.i.i.i = getelementptr inbounds i8, ptr %this, i64 112
  tail call void @llvm.memset.p0.i64(ptr noundef nonnull align 8 dereferenceable(16) %arrayidx5.i2.i.i.i, i8 0, i64 16, i1 false)
  store float 1.000000e+00, ptr %arrayidx5.i5.i.i.i, align 8
  %arrayidx7.i6.i.i.i = getelementptr inbounds i8, ptr %this, i64 116
  tail call void @llvm.memset.p0.i64(ptr noundef nonnull align 4 dereferenceable(20) %arrayidx7.i6.i.i.i, i8 0, i64 20, i1 false)
  store float 1.000000e+00, ptr %m_transB, align 8
  %arrayidx3.i.i.i.i1 = getelementptr inbounds i8, ptr %this, i64 140
  %arrayidx3.i1.i.i.i2 = getelementptr inbounds i8, ptr %this, i64 156
  tail call void @llvm.memset.p0.i64(ptr noundef nonnull align 4 dereferenceable(16) %arrayidx3.i.i.i.i1, i8 0, i64 16, i1 false)
  store float 1.000000e+00, ptr %arrayidx3.i1.i.i.i2, align 4
  %arrayidx5.i2.i.i.i3 = getelementptr inbounds i8, ptr %this, i64 160
  %arrayidx5.i5.i.i.i4 = getelementptr inbounds i8, ptr %this, i64 176
  tail call void @llvm.memset.p0.i64(ptr noundef nonnull align 8 dereferenceable(16) %arrayidx5.i2.i.i.i3, i8 0, i64 16, i1 false)
  store float 1.000000e+00, ptr %arrayidx5.i5.i.i.i4, align 8
  %arrayidx7.i6.i.i.i5 = getelementptr inbounds i8, ptr %this, i64 180
  tail call void @llvm.memset.p0.i64(ptr noundef nonnull align 4 dereferenceable(20) %arrayidx7.i6.i.i.i5, i8 0, i64 20, i1 false)
  ret void
}